; Function Attrs: mustprogress uwtable
define hidden noundef i32 @_ZNK5array6solver8sel_hashclEPN3euf5enodeE(ptr nocapture noundef nonnull readnone align 1 dereferenceable(1) %this, ptr noundef %n) local_unnamed_addr #3 align 2 {
entry:
  %ref.tmp = alloca %"struct.array::solver::sel_khasher", align 1
  %ref.tmp2 = alloca %"struct.array::solver::sel_chasher", align 1
  %m_num_args.i = getelementptr inbounds i8, ptr %n, i64 152
  %0 = load i32, ptr %m_num_args.i, align 8
  %sub = add i32 %0, -1
  %call3 = call noundef i32 @_Z18get_composite_hashIPN3euf5enodeEN5array6solver11sel_khasherENS4_11sel_chasherEEjT_jRKT0_RKT1_(ptr noundef nonnull %n, i32 noundef %sub, ptr noundef nonnull align 1 dereferenceable(1) %ref.tmp, ptr noundef nonnull align 1 dereferenceable(1) %ref.tmp2)
  ret i32 %call3
}